target datalayout = "e-m:e-p270:32:32-p271:32:32-p272:64:64-i64:64-i128:128-f80:128-n8:16:32:64-S128"
target triple = "x86_64-unknown-linux-gnu"

%struct.nbcon_state = type { %union.anon }
%union.anon = type { i32 }

; Function Attrs: fn_ret_thunk_extern nounwind null_pointer_is_valid
define dso_local noundef zeroext i1 @nbcon_enter_unsafe(ptr nocapture noundef %0) #2 align 16 {
  %2 = alloca %struct.nbcon_state, align 4
  %3 = load ptr, ptr %0, align 8
  call void @llvm.lifetime.start.p0(i64 4, ptr nonnull %2) #8
  store i32 0, ptr %2, align 4, !annotation !5
  %4 = getelementptr inbounds i8, ptr %3, i64 136
  %5 = load volatile i32, ptr %4, align 4
  store i32 %5, ptr %2, align 4
  %6 = call fastcc zeroext i1 @nbcon_context_can_proceed(ptr noundef %0, ptr noundef nonnull %2)
  br i1 %6, label %7, label %19

7:                                                ; preds = %14, %1
  %8 = phi i32 [ %15, %14 ], [ %5, %1 ]
  %9 = or i32 %8, 16
  %10 = tail call { i8, i32 } asm sideeffect ".pushsection .smp_locks,\22a\22\0A.balign 4\0A.long 671f - .\0A.popsection\0A671:\0A\09lock; cmpxchgl $3, $1\0A\09/* output condition code z*/\0A", "={@ccz},=*m,={ax},r,*m,2,~{memory},~{dirflag},~{fpsr},~{flags}"(ptr elementtype(i32) %4, i32 %9, ptr elementtype(i32) %4, i32 %8) #8, !srcloc !12
  %11 = extractvalue { i8, i32 } %10, 0
  %12 = icmp ult i8 %11, 2
  tail call void @llvm.assume(i1 %12)
  %13 = icmp eq i8 %11, 0
  br i1 %13, label %14, label %17, !prof !13

14:                                               ; preds = %7
  %15 = extractvalue { i8, i32 } %10, 1
  store i32 %15, ptr %2, align 4
  %16 = call fastcc zeroext i1 @nbcon_context_can_proceed(ptr noundef %0, ptr noundef nonnull %2)
  br i1 %16, label %7, label %19, !llvm.loop !17

17:                                               ; preds = %7
  store i32 %9, ptr %2, align 4
  %18 = call fastcc zeroext i1 @nbcon_context_can_proceed(ptr noundef %0, ptr noundef nonnull %2)
  br label %19

19:                                               ; preds = %17, %14, %1
  %20 = phi i1 [ %18, %17 ], [ false, %1 ], [ false, %14 ]
  call void @llvm.lifetime.end.p0(i64 4, ptr nonnull %2) #8
  ret i1 %20
}