; Function Attrs: fn_ret_thunk_extern nounwind null_pointer_is_valid
define dso_local noundef zeroext i1 @nbcon_enter_unsafe(ptr nocapture noundef %0) #1 align 16 {
  %2 = load ptr, ptr %0, align 8
  %3 = getelementptr inbounds i8, ptr %2, i64 136
  %4 = load volatile i32, ptr %3, align 4
  %5 = tail call fastcc zeroext i1 @nbcon_context_can_proceed(ptr noundef %0, i32 %4)
  br i1 %5, label %.preheader, label %.loopexit

.preheader:                                       ; preds = %1, %12
  %6 = phi i32 [ %13, %12 ], [ %4, %1 ]
  %7 = or i32 %6, 16
  %8 = tail call { i8, i32 } asm sideeffect ".pushsection .smp_locks,\22a\22\0A.balign 4\0A.long 671f - .\0A.popsection\0A671:\0A\09lock; cmpxchgl $3, $1\0A\09/* output condition code z*/\0A", "={@ccz},=*m,={ax},r,*m,2,~{memory},~{dirflag},~{fpsr},~{flags}"(ptr elementtype(i32) %3, i32 %7, ptr elementtype(i32) %3, i32 %6) #7, !srcloc !11
  %9 = extractvalue { i8, i32 } %8, 0
  %10 = icmp ult i8 %9, 2
  tail call void @llvm.assume(i1 %10)
  %11 = icmp eq i8 %9, 0
  br i1 %11, label %12, label %15, !prof !12

12:                                               ; preds = %.preheader
  %13 = extractvalue { i8, i32 } %8, 1
  %14 = tail call fastcc zeroext i1 @nbcon_context_can_proceed(ptr noundef %0, i32 %13)
  br i1 %14, label %.preheader, label %.loopexit, !llvm.loop !16

15:                                               ; preds = %.preheader
  %16 = tail call fastcc zeroext i1 @nbcon_context_can_proceed(ptr noundef %0, i32 %7)
  br label %.loopexit

.loopexit:                                        ; preds = %12, %15, %1
  %17 = phi i1 [ %16, %15 ], [ false, %1 ], [ false, %12 ]
  ret i1 %17
}